target datalayout = "e-m:e-p270:32:32-p271:32:32-p272:64:64-i64:64-i128:128-f80:128-n8:16:32:64-S128"
target triple = "x86_64-pc-linux-gnu"

%struct.lean_object = type { i32, i32 }
%struct.lean_ctor_object = type { %struct.lean_object, [0 x ptr] }

; Function Attrs: inlinehint nounwind uwtable
define internal ptr @lean_to_ctor(ptr noundef %0) #0 {
  %2 = alloca ptr, align 8
  store ptr %0, ptr %2, align 8, !tbaa !4
  %3 = load ptr, ptr %2, align 8, !tbaa !4
  ret ptr %3
}

; Function Attrs: inlinehint nounwind uwtable
define internal ptr @lean_ctor_obj_cptr(ptr noundef %0) #0 {
  %2 = alloca ptr, align 8
  store ptr %0, ptr %2, align 8, !tbaa !4
  %3 = load ptr, ptr %2, align 8, !tbaa !4
  %4 = call ptr @lean_to_ctor(ptr noundef %3)
  %5 = getelementptr inbounds nuw %struct.lean_ctor_object, ptr %4, i32 0, i32 1
  %6 = getelementptr inbounds [0 x ptr], ptr %5, i64 0, i64 0
  ret ptr %6
}

; Function Attrs: inlinehint nounwind uwtable
define internal zeroext i8 @lean_ptr_tag(ptr noundef %0) #0 {
  %2 = alloca ptr, align 8
  store ptr %0, ptr %2, align 8, !tbaa !4
  %3 = load ptr, ptr %2, align 8, !tbaa !4
  %4 = getelementptr inbounds nuw %struct.lean_object, ptr %3, i32 0, i32 1
  %5 = load i32, ptr %4, align 4
  %6 = lshr i32 %5, 24
  %7 = trunc i32 %6 to i8
  ret i8 %7
}

; Function Attrs: inlinehint nounwind uwtable
define internal i64 @lean_unbox(ptr noundef %0) #0 {
  %2 = alloca ptr, align 8
  store ptr %0, ptr %2, align 8, !tbaa !4
  %3 = load ptr, ptr %2, align 8, !tbaa !4
  %4 = ptrtoint ptr %3 to i64
  %5 = lshr i64 %4, 1
  ret i64 %5
}

; Function Attrs: alwaysinline nounwind uwtable
define internal zeroext i1 @lean_is_scalar(ptr noundef %0) #1 {
  %2 = alloca ptr, align 8
  store ptr %0, ptr %2, align 8, !tbaa !4
  %3 = load ptr, ptr %2, align 8, !tbaa !4
  %4 = ptrtoint ptr %3 to i64
  %5 = and i64 %4, 1
  %6 = icmp eq i64 %5, 1
  ret i1 %6
}

; Function Attrs: inlinehint nounwind uwtable
define internal ptr @lean_ctor_get(ptr noundef %0, i32 noundef %1) #0 {
  %3 = alloca ptr, align 8
  %4 = alloca i32, align 4
  store ptr %0, ptr %3, align 8, !tbaa !4
  store i32 %1, ptr %4, align 4, !tbaa !11
  %5 = load ptr, ptr %3, align 8, !tbaa !4
  %6 = call ptr @lean_ctor_obj_cptr(ptr noundef %5)
  %7 = load i32, ptr %4, align 4, !tbaa !11
  %8 = zext i32 %7 to i64
  %9 = getelementptr inbounds nuw ptr, ptr %6, i64 %8
  %10 = load ptr, ptr %9, align 8, !tbaa !4
  ret ptr %10
}

; Function Attrs: inlinehint nounwind uwtable
define internal i32 @lean_obj_tag(ptr noundef %0) #0 {
  %2 = alloca i32, align 4
  %3 = alloca ptr, align 8
  store ptr %0, ptr %3, align 8, !tbaa !4
  %4 = load ptr, ptr %3, align 8, !tbaa !4
  %5 = call zeroext i1 @lean_is_scalar(ptr noundef %4)
  br i1 %5, label %6, label %10

6:                                                ; preds = %1
  %7 = load ptr, ptr %3, align 8, !tbaa !4
  %8 = call i64 @lean_unbox(ptr noundef %7)
  %9 = trunc i64 %8 to i32
  store i32 %9, ptr %2, align 4
  br label %14

10:                                               ; preds = %1
  %11 = load ptr, ptr %3, align 8, !tbaa !4
  %12 = call zeroext i8 @lean_ptr_tag(ptr noundef %11)
  %13 = zext i8 %12 to i32
  store i32 %13, ptr %2, align 4
  br label %14

14:                                               ; preds = %10, %6
  %15 = load i32, ptr %2, align 4
  ret i32 %15
}

; Function Attrs: nounwind uwtable
define zeroext i8 @l_Lean_Compiler_LCNF_AlphaEqv_eqvType(ptr noundef %0, ptr noundef %1, ptr noundef %2) #2 {
  %4 = alloca i8, align 1
  %5 = alloca ptr, align 8
  %6 = alloca ptr, align 8
  %7 = alloca ptr, align 8
  %8 = alloca ptr, align 8
  %9 = alloca ptr, align 8
  %10 = alloca i8, align 1
  %11 = alloca i8, align 1
  %12 = alloca ptr, align 8
  %13 = alloca ptr, align 8
  %14 = alloca ptr, align 8
  %15 = alloca ptr, align 8
  %16 = alloca i8, align 1
  %17 = alloca i32, align 4
  %18 = alloca i8, align 1
  %19 = alloca ptr, align 8
  %20 = alloca ptr, align 8
  %21 = alloca ptr, align 8
  %22 = alloca ptr, align 8
  %23 = alloca i8, align 1
  %24 = alloca i8, align 1
  %25 = alloca i8, align 1
  store ptr %0, ptr %5, align 8, !tbaa !4
  store ptr %1, ptr %6, align 8, !tbaa !4
  store ptr %2, ptr %7, align 8, !tbaa !4
  br label %26

26:                                               ; preds = %105, %73, %3
  %27 = load ptr, ptr %5, align 8, !tbaa !4
  %28 = call i32 @lean_obj_tag(ptr noundef %27)
  switch i32 %28, label %112 [
    i32 1, label %29
    i32 5, label %48
    i32 7, label %80
  ]

29:                                               ; preds = %26
  %30 = load ptr, ptr %6, align 8, !tbaa !4
  %31 = call i32 @lean_obj_tag(ptr noundef %30)
  %32 = icmp eq i32 %31, 1
  br i1 %32, label %33, label %43

33:                                               ; preds = %29
  call void @llvm.lifetime.start.p0(i64 8, ptr %8) #7
  call void @llvm.lifetime.start.p0(i64 8, ptr %9) #7
  call void @llvm.lifetime.start.p0(i64 1, ptr %10) #7
  %34 = load ptr, ptr %5, align 8, !tbaa !4
  %35 = call ptr @lean_ctor_get(ptr noundef %34, i32 noundef 0)
  store ptr %35, ptr %8, align 8, !tbaa !4
  %36 = load ptr, ptr %6, align 8, !tbaa !4
  %37 = call ptr @lean_ctor_get(ptr noundef %36, i32 noundef 0)
  store ptr %37, ptr %9, align 8, !tbaa !4
  %38 = load ptr, ptr %8, align 8, !tbaa !4
  %39 = load ptr, ptr %9, align 8, !tbaa !4
  %40 = load ptr, ptr %7, align 8, !tbaa !4
  %41 = call zeroext i8 @l_Lean_Compiler_LCNF_AlphaEqv_eqvFVar(ptr noundef %38, ptr noundef %39, ptr noundef %40)
  store i8 %41, ptr %10, align 1, !tbaa !10
  %42 = load i8, ptr %10, align 1, !tbaa !10
  store i8 %42, ptr %4, align 1
  call void @llvm.lifetime.end.p0(i64 1, ptr %10) #7
  call void @llvm.lifetime.end.p0(i64 8, ptr %9) #7
  call void @llvm.lifetime.end.p0(i64 8, ptr %8) #7
  br label %117

43:                                               ; preds = %29
  call void @llvm.lifetime.start.p0(i64 1, ptr %11) #7
  %44 = load ptr, ptr %5, align 8, !tbaa !4
  %45 = load ptr, ptr %6, align 8, !tbaa !4
  %46 = call zeroext i8 @lean_expr_eqv(ptr noundef %44, ptr noundef %45)
  store i8 %46, ptr %11, align 1, !tbaa !10
  %47 = load i8, ptr %11, align 1, !tbaa !10
  store i8 %47, ptr %4, align 1
  call void @llvm.lifetime.end.p0(i64 1, ptr %11) #7
  br label %117

48:                                               ; preds = %26
  %49 = load ptr, ptr %6, align 8, !tbaa !4
  %50 = call i32 @lean_obj_tag(ptr noundef %49)
  %51 = icmp eq i32 %50, 5
  br i1 %51, label %52, label %75

52:                                               ; preds = %48
  call void @llvm.lifetime.start.p0(i64 8, ptr %12) #7
  call void @llvm.lifetime.start.p0(i64 8, ptr %13) #7
  call void @llvm.lifetime.start.p0(i64 8, ptr %14) #7
  call void @llvm.lifetime.start.p0(i64 8, ptr %15) #7
  call void @llvm.lifetime.start.p0(i64 1, ptr %16) #7
  %53 = load ptr, ptr %5, align 8, !tbaa !4
  %54 = call ptr @lean_ctor_get(ptr noundef %53, i32 noundef 0)
  store ptr %54, ptr %12, align 8, !tbaa !4
  %55 = load ptr, ptr %5, align 8, !tbaa !4
  %56 = call ptr @lean_ctor_get(ptr noundef %55, i32 noundef 1)
  store ptr %56, ptr %13, align 8, !tbaa !4
  %57 = load ptr, ptr %6, align 8, !tbaa !4
  %58 = call ptr @lean_ctor_get(ptr noundef %57, i32 noundef 0)
  store ptr %58, ptr %14, align 8, !tbaa !4
  %59 = load ptr, ptr %6, align 8, !tbaa !4
  %60 = call ptr @lean_ctor_get(ptr noundef %59, i32 noundef 1)
  store ptr %60, ptr %15, align 8, !tbaa !4
  %61 = load ptr, ptr %13, align 8, !tbaa !4
  %62 = load ptr, ptr %15, align 8, !tbaa !4
  %63 = load ptr, ptr %7, align 8, !tbaa !4
  %64 = call zeroext i8 @l_Lean_Compiler_LCNF_AlphaEqv_eqvType(ptr noundef %61, ptr noundef %62, ptr noundef %63)
  store i8 %64, ptr %16, align 1, !tbaa !10
  %65 = load i8, ptr %16, align 1, !tbaa !10
  %66 = zext i8 %65 to i32
  %67 = icmp eq i32 %66, 0
  br i1 %67, label %68, label %70

68:                                               ; preds = %52
  %69 = load i8, ptr %16, align 1, !tbaa !10
  store i8 %69, ptr %4, align 1
  store i32 1, ptr %17, align 4
  br label %73

70:                                               ; preds = %52
  %71 = load ptr, ptr %12, align 8, !tbaa !4
  store ptr %71, ptr %5, align 8, !tbaa !4
  %72 = load ptr, ptr %14, align 8, !tbaa !4
  store ptr %72, ptr %6, align 8, !tbaa !4
  store i32 2, ptr %17, align 4
  br label %73

73:                                               ; preds = %70, %68
  call void @llvm.lifetime.end.p0(i64 1, ptr %16) #7
  call void @llvm.lifetime.end.p0(i64 8, ptr %15) #7
  call void @llvm.lifetime.end.p0(i64 8, ptr %14) #7
  call void @llvm.lifetime.end.p0(i64 8, ptr %13) #7
  call void @llvm.lifetime.end.p0(i64 8, ptr %12) #7
  %74 = load i32, ptr %17, align 4
  switch i32 %74, label %119 [
    i32 1, label %117
    i32 2, label %26
  ]

75:                                               ; preds = %48
  call void @llvm.lifetime.start.p0(i64 1, ptr %18) #7
  %76 = load ptr, ptr %5, align 8, !tbaa !4
  %77 = load ptr, ptr %6, align 8, !tbaa !4
  %78 = call zeroext i8 @lean_expr_eqv(ptr noundef %76, ptr noundef %77)
  store i8 %78, ptr %18, align 1, !tbaa !10
  %79 = load i8, ptr %18, align 1, !tbaa !10
  store i8 %79, ptr %4, align 1
  store i32 1, ptr %17, align 4
  call void @llvm.lifetime.end.p0(i64 1, ptr %18) #7
  br label %117

80:                                               ; preds = %26
  %81 = load ptr, ptr %6, align 8, !tbaa !4
  %82 = call i32 @lean_obj_tag(ptr noundef %81)
  %83 = icmp eq i32 %82, 7
  br i1 %83, label %84, label %107

84:                                               ; preds = %80
  call void @llvm.lifetime.start.p0(i64 8, ptr %19) #7
  call void @llvm.lifetime.start.p0(i64 8, ptr %20) #7
  call void @llvm.lifetime.start.p0(i64 8, ptr %21) #7
  call void @llvm.lifetime.start.p0(i64 8, ptr %22) #7
  call void @llvm.lifetime.start.p0(i64 1, ptr %23) #7
  %85 = load ptr, ptr %5, align 8, !tbaa !4
  %86 = call ptr @lean_ctor_get(ptr noundef %85, i32 noundef 1)
  store ptr %86, ptr %19, align 8, !tbaa !4
  %87 = load ptr, ptr %5, align 8, !tbaa !4
  %88 = call ptr @lean_ctor_get(ptr noundef %87, i32 noundef 2)
  store ptr %88, ptr %20, align 8, !tbaa !4
  %89 = load ptr, ptr %6, align 8, !tbaa !4
  %90 = call ptr @lean_ctor_get(ptr noundef %89, i32 noundef 1)
  store ptr %90, ptr %21, align 8, !tbaa !4
  %91 = load ptr, ptr %6, align 8, !tbaa !4
  %92 = call ptr @lean_ctor_get(ptr noundef %91, i32 noundef 2)
  store ptr %92, ptr %22, align 8, !tbaa !4
  %93 = load ptr, ptr %19, align 8, !tbaa !4
  %94 = load ptr, ptr %21, align 8, !tbaa !4
  %95 = load ptr, ptr %7, align 8, !tbaa !4
  %96 = call zeroext i8 @l_Lean_Compiler_LCNF_AlphaEqv_eqvType(ptr noundef %93, ptr noundef %94, ptr noundef %95)
  store i8 %96, ptr %23, align 1, !tbaa !10
  %97 = load i8, ptr %23, align 1, !tbaa !10
  %98 = zext i8 %97 to i32
  %99 = icmp eq i32 %98, 0
  br i1 %99, label %100, label %102

100:                                              ; preds = %84
  %101 = load i8, ptr %23, align 1, !tbaa !10
  store i8 %101, ptr %4, align 1
  store i32 1, ptr %17, align 4
  br label %105

102:                                              ; preds = %84
  %103 = load ptr, ptr %20, align 8, !tbaa !4
  store ptr %103, ptr %5, align 8, !tbaa !4
  %104 = load ptr, ptr %22, align 8, !tbaa !4
  store ptr %104, ptr %6, align 8, !tbaa !4
  store i32 2, ptr %17, align 4
  br label %105

105:                                              ; preds = %102, %100
  call void @llvm.lifetime.end.p0(i64 1, ptr %23) #7
  call void @llvm.lifetime.end.p0(i64 8, ptr %22) #7
  call void @llvm.lifetime.end.p0(i64 8, ptr %21) #7
  call void @llvm.lifetime.end.p0(i64 8, ptr %20) #7
  call void @llvm.lifetime.end.p0(i64 8, ptr %19) #7
  %106 = load i32, ptr %17, align 4
  switch i32 %106, label %119 [
    i32 1, label %117
    i32 2, label %26
  ]

107:                                              ; preds = %80
  call void @llvm.lifetime.start.p0(i64 1, ptr %24) #7
  %108 = load ptr, ptr %5, align 8, !tbaa !4
  %109 = load ptr, ptr %6, align 8, !tbaa !4
  %110 = call zeroext i8 @lean_expr_eqv(ptr noundef %108, ptr noundef %109)
  store i8 %110, ptr %24, align 1, !tbaa !10
  %111 = load i8, ptr %24, align 1, !tbaa !10
  store i8 %111, ptr %4, align 1
  store i32 1, ptr %17, align 4
  call void @llvm.lifetime.end.p0(i64 1, ptr %24) #7
  br label %117

112:                                              ; preds = %26
  call void @llvm.lifetime.start.p0(i64 1, ptr %25) #7
  %113 = load ptr, ptr %5, align 8, !tbaa !4
  %114 = load ptr, ptr %6, align 8, !tbaa !4
  %115 = call zeroext i8 @lean_expr_eqv(ptr noundef %113, ptr noundef %114)
  store i8 %115, ptr %25, align 1, !tbaa !10
  %116 = load i8, ptr %25, align 1, !tbaa !10
  store i8 %116, ptr %4, align 1
  store i32 1, ptr %17, align 4
  call void @llvm.lifetime.end.p0(i64 1, ptr %25) #7
  br label %117

117:                                              ; preds = %112, %107, %105, %75, %73, %43, %33
  %118 = load i8, ptr %4, align 1
  ret i8 %118

119:                                              ; preds = %105, %73
  unreachable
}