; Function Attrs: nounwind uwtable
define zeroext i8 @l_Lean_Compiler_LCNF_AlphaEqv_eqvType(ptr noundef %0, ptr noundef %1, ptr noundef %2) local_unnamed_addr #0 {
  br label %.backedge

.backedge:                                        ; preds = %.backedge.backedge, %3
  %.049 = phi ptr [ %1, %3 ], [ %.049.be, %.backedge.backedge ]
  %.046 = phi ptr [ %0, %3 ], [ %.046.be, %.backedge.backedge ]
  %4 = ptrtoint ptr %.046 to i64
  %5 = and i64 %4, 1
  %.not.i = icmp eq i64 %5, 0
  br i1 %.not.i, label %9, label %6

6:                                                ; preds = %.backedge
  %7 = lshr i64 %4, 1
  %8 = trunc i64 %7 to i32
  br label %lean_obj_tag.exit

9:                                                ; preds = %.backedge
  %10 = getelementptr i8, ptr %.046, i64 4
  %.val.i = load i32, ptr %10, align 4
  %11 = lshr i32 %.val.i, 24
  br label %lean_obj_tag.exit

lean_obj_tag.exit:                                ; preds = %6, %9
  %.0.i = phi i32 [ %8, %6 ], [ %11, %9 ]
  switch i32 %.0.i, label %76 [
    i32 1, label %12
    i32 5, label %30
    i32 7, label %53
  ]

12:                                               ; preds = %lean_obj_tag.exit
  %13 = ptrtoint ptr %.049 to i64
  %14 = and i64 %13, 1
  %.not.i58 = icmp eq i64 %14, 0
  br i1 %.not.i58, label %18, label %15

15:                                               ; preds = %12
  %16 = lshr i64 %13, 1
  %17 = trunc i64 %16 to i32
  br label %lean_obj_tag.exit61

18:                                               ; preds = %12
  %19 = getelementptr i8, ptr %.049, i64 4
  %.val.i60 = load i32, ptr %19, align 4
  %20 = lshr i32 %.val.i60, 24
  br label %lean_obj_tag.exit61

lean_obj_tag.exit61:                              ; preds = %15, %18
  %.0.i59 = phi i32 [ %17, %15 ], [ %20, %18 ]
  %21 = icmp eq i32 %.0.i59, 1
  br i1 %21, label %22, label %28

22:                                               ; preds = %lean_obj_tag.exit61
  %23 = getelementptr inbounds nuw i8, ptr %.046, i64 8
  %24 = load ptr, ptr %23, align 8, !tbaa !4
  %25 = getelementptr inbounds nuw i8, ptr %.049, i64 8
  %26 = load ptr, ptr %25, align 8, !tbaa !4
  %27 = tail call zeroext i8 @l_Lean_Compiler_LCNF_AlphaEqv_eqvFVar(ptr noundef %24, ptr noundef %26, ptr noundef %2)
  br label %.loopexit

28:                                               ; preds = %lean_obj_tag.exit61
  %29 = tail call zeroext i8 @lean_expr_eqv(ptr noundef %.046, ptr noundef %.049) #4
  br label %.loopexit

30:                                               ; preds = %lean_obj_tag.exit
  %31 = ptrtoint ptr %.049 to i64
  %32 = and i64 %31, 1
  %.not.i62 = icmp eq i64 %32, 0
  br i1 %.not.i62, label %36, label %33

33:                                               ; preds = %30
  %34 = lshr i64 %31, 1
  %35 = trunc i64 %34 to i32
  br label %lean_obj_tag.exit65

36:                                               ; preds = %30
  %37 = getelementptr i8, ptr %.049, i64 4
  %.val.i64 = load i32, ptr %37, align 4
  %38 = lshr i32 %.val.i64, 24
  br label %lean_obj_tag.exit65

lean_obj_tag.exit65:                              ; preds = %33, %36
  %.0.i63 = phi i32 [ %35, %33 ], [ %38, %36 ]
  %39 = icmp eq i32 %.0.i63, 5
  br i1 %39, label %40, label %51

40:                                               ; preds = %lean_obj_tag.exit65
  %41 = getelementptr inbounds nuw i8, ptr %.046, i64 8
  %42 = load ptr, ptr %41, align 8, !tbaa !4
  %43 = getelementptr inbounds nuw i8, ptr %.046, i64 16
  %44 = load ptr, ptr %43, align 8, !tbaa !4
  %45 = getelementptr inbounds nuw i8, ptr %.049, i64 8
  %46 = load ptr, ptr %45, align 8, !tbaa !4
  %47 = getelementptr inbounds nuw i8, ptr %.049, i64 16
  %48 = load ptr, ptr %47, align 8, !tbaa !4
  %49 = tail call zeroext i8 @l_Lean_Compiler_LCNF_AlphaEqv_eqvType(ptr noundef %44, ptr noundef %48, ptr noundef %2)
  %50 = icmp eq i8 %49, 0
  br i1 %50, label %.loopexit, label %.backedge.backedge

.backedge.backedge:                               ; preds = %40, %63
  %.049.be = phi ptr [ %71, %63 ], [ %46, %40 ]
  %.046.be = phi ptr [ %67, %63 ], [ %42, %40 ]
  br label %.backedge

51:                                               ; preds = %lean_obj_tag.exit65
  %52 = tail call zeroext i8 @lean_expr_eqv(ptr noundef %.046, ptr noundef %.049) #4
  br label %.loopexit

53:                                               ; preds = %lean_obj_tag.exit
  %54 = ptrtoint ptr %.049 to i64
  %55 = and i64 %54, 1
  %.not.i66 = icmp eq i64 %55, 0
  br i1 %.not.i66, label %59, label %56

56:                                               ; preds = %53
  %57 = lshr i64 %54, 1
  %58 = trunc i64 %57 to i32
  br label %lean_obj_tag.exit69

59:                                               ; preds = %53
  %60 = getelementptr i8, ptr %.049, i64 4
  %.val.i68 = load i32, ptr %60, align 4
  %61 = lshr i32 %.val.i68, 24
  br label %lean_obj_tag.exit69

lean_obj_tag.exit69:                              ; preds = %56, %59
  %.0.i67 = phi i32 [ %58, %56 ], [ %61, %59 ]
  %62 = icmp eq i32 %.0.i67, 7
  br i1 %62, label %63, label %74

63:                                               ; preds = %lean_obj_tag.exit69
  %64 = getelementptr inbounds nuw i8, ptr %.046, i64 16
  %65 = load ptr, ptr %64, align 8, !tbaa !4
  %66 = getelementptr inbounds nuw i8, ptr %.046, i64 24
  %67 = load ptr, ptr %66, align 8, !tbaa !4
  %68 = getelementptr inbounds nuw i8, ptr %.049, i64 16
  %69 = load ptr, ptr %68, align 8, !tbaa !4
  %70 = getelementptr inbounds nuw i8, ptr %.049, i64 24
  %71 = load ptr, ptr %70, align 8, !tbaa !4
  %72 = tail call zeroext i8 @l_Lean_Compiler_LCNF_AlphaEqv_eqvType(ptr noundef %65, ptr noundef %69, ptr noundef %2)
  %73 = icmp eq i8 %72, 0
  br i1 %73, label %.loopexit, label %.backedge.backedge

74:                                               ; preds = %lean_obj_tag.exit69
  %75 = tail call zeroext i8 @lean_expr_eqv(ptr noundef %.046, ptr noundef %.049) #4
  br label %.loopexit

76:                                               ; preds = %lean_obj_tag.exit
  %77 = tail call zeroext i8 @lean_expr_eqv(ptr noundef %.046, ptr noundef %.049) #4
  br label %.loopexit

.loopexit:                                        ; preds = %63, %40, %76, %74, %51, %28, %22
  %.1 = phi i8 [ %77, %76 ], [ %75, %74 ], [ %52, %51 ], [ %27, %22 ], [ %29, %28 ], [ 0, %40 ], [ 0, %63 ]
  ret i8 %.1
}